; Function Attrs: nofree nosync nounwind memory(readwrite, inaccessiblemem: none) uwtable
define range(i32 0, 2) i32 @Acb_NtkFindDivs_rec(ptr noundef readonly captures(none) %0, i32 noundef %1) local_unnamed_addr #11 {
  %3 = getelementptr i8, ptr %0, i64 96
  %.val27 = load i32, ptr %3, align 8
  %4 = getelementptr i8, ptr %0, i64 264
  %.val28 = load ptr, ptr %4, align 8
  %5 = sext i32 %1 to i64
  %6 = getelementptr inbounds i32, ptr %.val28, i64 %5
  %7 = load i32, ptr %6, align 4
  %8 = add nsw i32 %.val27, -1
  %.not = icmp eq i32 %7, %8
  br i1 %.not, label %33, label %9

9:                                                ; preds = %2
  %.not33 = icmp eq i32 %7, %.val27
  store i32 %.val27, ptr %6, align 4
  br i1 %.not33, label %33, label %10

10:                                               ; preds = %9
  %11 = getelementptr i8, ptr %0, i64 120
  %.val = load ptr, ptr %11, align 8
  %12 = getelementptr inbounds i8, ptr %.val, i64 %5
  %13 = load i8, ptr %12, align 1
  %.not34 = icmp eq i8 %13, 3
  br i1 %.not34, label %33, label %14

14:                                               ; preds = %10
  %15 = getelementptr i8, ptr %0, i64 136
  %.val25 = load ptr, ptr %15, align 8
  %16 = getelementptr i8, ptr %0, i64 152
  %.val26 = load ptr, ptr %16, align 8
  %17 = getelementptr inbounds i32, ptr %.val25, i64 %5
  %18 = load i32, ptr %17, align 4
  %19 = sext i32 %18 to i64
  %20 = getelementptr inbounds i32, ptr %.val26, i64 %19
  %21 = load i32, ptr %20, align 4
  %22 = icmp sgt i32 %21, 0
  br i1 %22, label %.lr.ph, label %.critedge.thread

.lr.ph:                                           ; preds = %14, %.lr.ph
  %indvars.iv = phi i64 [ %indvars.iv.next, %.lr.ph ], [ 0, %14 ]
  %.036 = phi i32 [ %26, %.lr.ph ], [ 1, %14 ]
  %indvars.iv.next = add nuw nsw i64 %indvars.iv, 1
  %23 = getelementptr inbounds nuw i32, ptr %20, i64 %indvars.iv.next
  %24 = load i32, ptr %23, align 4
  %25 = tail call i32 @Acb_NtkFindDivs_rec(ptr noundef %0, i32 noundef %24)
  %26 = and i32 %25, %.036
  %27 = load i32, ptr %20, align 4
  %28 = sext i32 %27 to i64
  %29 = icmp slt i64 %indvars.iv.next, %28
  br i1 %29, label %.lr.ph, label %.critedge, !llvm.loop !52

.critedge:                                        ; preds = %.lr.ph
  %30 = icmp eq i32 %26, 0
  br i1 %30, label %33, label %.critedge.thread

.critedge.thread:                                 ; preds = %14, %.critedge
  %.val31 = load i32, ptr %3, align 8
  %.val32 = load ptr, ptr %4, align 8
  %31 = getelementptr inbounds i32, ptr %.val32, i64 %5
  %32 = add nsw i32 %.val31, -1
  store i32 %32, ptr %31, align 4
  br label %33

33:                                               ; preds = %.critedge, %.critedge.thread, %10, %9, %2
  %.021 = phi i32 [ 1, %2 ], [ 0, %9 ], [ 0, %10 ], [ 1, %.critedge.thread ], [ 0, %.critedge ]
  ret i32 %.021
}